; Function Attrs: mustprogress uwtable
define hidden void @_ZN7datalog7context21get_rules_along_traceER10ref_vectorINS_4ruleENS_12rule_managerEE(ptr nocapture noundef nonnull align 8 dereferenceable(3556) %this, ptr noundef nonnull align 8 dereferenceable(16) %rules) local_unnamed_addr #3 align 2 {
entry:
  tail call void @_ZN7datalog7context13ensure_engineEP4expr(ptr noundef nonnull align 8 dereferenceable(3556) %this, ptr noundef null)
  %m_engine = getelementptr inbounds i8, ptr %this, i64 3504
  %0 = load ptr, ptr %m_engine, align 8
  %vtable = load ptr, ptr %0, align 8
  %vfn = getelementptr inbounds i8, ptr %vtable, i64 136
  %1 = load ptr, ptr %vfn, align 8
  tail call void %1(ptr noundef nonnull align 8 dereferenceable(48) %0, ptr noundef nonnull align 8 dereferenceable(16) %rules)
  ret void
}